target datalayout = "e-m:e-p270:32:32-p271:32:32-p272:64:64-i64:64-i128:128-f80:128-n8:16:32:64-S128"
target triple = "x86_64-pc-linux-gnu"

; Function Attrs: nounwind uwtable
define hidden ptr @SDL_ClipboardTextCallback(ptr noundef %0, ptr noundef %1, ptr noundef %2) #0 {
  %4 = alloca ptr, align 8
  %5 = alloca ptr, align 8
  %6 = alloca ptr, align 8
  %7 = alloca ptr, align 8
  store ptr %0, ptr %4, align 8
  store ptr %1, ptr %5, align 8
  store ptr %2, ptr %6, align 8
  call void @llvm.lifetime.start.p0(i64 8, ptr %7) #5
  %8 = load ptr, ptr %4, align 8
  store ptr %8, ptr %7, align 8
  %9 = load ptr, ptr %7, align 8
  %10 = icmp ne ptr %9, null
  br i1 %10, label %11, label %15

11:                                               ; preds = %3
  %12 = load ptr, ptr %7, align 8
  %13 = call i64 @SDL_strlen_REAL(ptr noundef %12)
  %14 = load ptr, ptr %6, align 8
  store i64 %13, ptr %14, align 8
  br label %17

15:                                               ; preds = %3
  %16 = load ptr, ptr %6, align 8
  store i64 0, ptr %16, align 8
  br label %17

17:                                               ; preds = %15, %11
  %18 = load ptr, ptr %7, align 8
  call void @llvm.lifetime.end.p0(i64 8, ptr %7) #5
  ret ptr %18
}