; Function Attrs: nounwind uwtable
define hidden noundef ptr @SDL_ClipboardTextCallback(ptr noundef returned %0, ptr readnone captures(none) %1, ptr noundef writeonly captures(none) initializes((0, 8)) %2) #0 {
  %.not = icmp eq ptr %0, null
  br i1 %.not, label %6, label %4

4:                                                ; preds = %3
  %5 = tail call i64 @SDL_strlen_REAL(ptr noundef nonnull %0) #6
  br label %6

6:                                                ; preds = %3, %4
  %storemerge = phi i64 [ %5, %4 ], [ 0, %3 ]
  store i64 %storemerge, ptr %2, align 8
  ret ptr %0
}